target datalayout = "e-m:e-p270:32:32-p271:32:32-p272:64:64-i64:64-i128:128-f80:128-n8:16:32:64-S128"
target triple = "x86_64-pc-linux-gnu"

%struct._wmem_range_t = type { i64, i64, i64 }

@.str = private unnamed_addr constant [38 x i8] c"Range: low=%lu high=%lu max_edge=%lu\0A\00", align 1

; Function Attrs: nounwind uwtable
define internal void @print_range(ptr noundef %0) #0 {
  %2 = alloca ptr, align 8
  %3 = alloca ptr, align 8
  store ptr %0, ptr %2, align 8
  %4 = load ptr, ptr %2, align 8
  store ptr %4, ptr %3, align 8
  %5 = load ptr, ptr %2, align 8
  %6 = icmp ne ptr %5, null
  br i1 %6, label %8, label %7

7:                                                ; preds = %1
  br label %19

8:                                                ; preds = %1
  %9 = load ptr, ptr %3, align 8
  %10 = getelementptr inbounds %struct._wmem_range_t, ptr %9, i32 0, i32 0
  %11 = load i64, ptr %10, align 8
  %12 = load ptr, ptr %3, align 8
  %13 = getelementptr inbounds %struct._wmem_range_t, ptr %12, i32 0, i32 1
  %14 = load i64, ptr %13, align 8
  %15 = load ptr, ptr %3, align 8
  %16 = getelementptr inbounds %struct._wmem_range_t, ptr %15, i32 0, i32 2
  %17 = load i64, ptr %16, align 8
  %18 = call i32 (ptr, ...) @printf(ptr noundef @.str, i64 noundef %11, i64 noundef %14, i64 noundef %17)
  br label %19

19:                                               ; preds = %8, %7
  ret void
}