; Function Attrs: nofree nounwind uwtable
define internal void @print_range(ptr noundef readonly %0) #4 {
  %.not = icmp eq ptr %0, null
  br i1 %.not, label %9, label %2

2:                                                ; preds = %1
  %3 = load i64, ptr %0, align 8
  %4 = getelementptr inbounds nuw i8, ptr %0, i64 8
  %5 = load i64, ptr %4, align 8
  %6 = getelementptr inbounds nuw i8, ptr %0, i64 16
  %7 = load i64, ptr %6, align 8
  %8 = tail call i32 (ptr, ...) @printf(ptr noundef nonnull dereferenceable(1) @.str, i64 noundef %3, i64 noundef %5, i64 noundef %7)
  br label %9

9:                                                ; preds = %1, %2
  ret void
}